target datalayout = "e-m:e-p270:32:32-p271:32:32-p272:64:64-i64:64-i128:128-f80:128-n8:16:32:64-S128"
target triple = "x86_64-pc-linux-gnu"

%struct.cpu_set_t = type { [16 x i64] }
%struct.uv__cpu_constraint = type { i64, i64, double }

; Function Attrs: nounwind uwtable
define dso_local i32 @uv_available_parallelism() #0 {
  %1 = alloca i64, align 8
  %2 = alloca %struct.cpu_set_t, align 8
  %3 = alloca double, align 8
  %4 = alloca %struct.uv__cpu_constraint, align 8
  call void @llvm.lifetime.start.p0(i64 8, ptr %1) #11
  store i64 -1, ptr %1, align 8
  call void @llvm.lifetime.start.p0(i64 128, ptr %2) #11
  call void @llvm.memset.p0.i64(ptr align 8 %2, i8 0, i64 128, i1 false)
  %5 = call i32 @sched_getaffinity(i32 noundef 0, i64 noundef 128, ptr noundef %2) #11
  %6 = icmp eq i32 0, %5
  br i1 %6, label %7, label %10

7:                                                ; preds = %0
  %8 = call i32 @__sched_cpucount(i64 noundef 128, ptr noundef %2) #11
  %9 = sext i32 %8 to i64
  store i64 %9, ptr %1, align 8
  br label %10

10:                                               ; preds = %7, %0
  %11 = load i64, ptr %1, align 8
  %12 = icmp slt i64 %11, 0
  br i1 %12, label %13, label %15

13:                                               ; preds = %10
  %14 = call i64 @sysconf(i32 noundef 84) #11
  store i64 %14, ptr %1, align 8
  br label %15

15:                                               ; preds = %13, %10
  call void @llvm.lifetime.start.p0(i64 8, ptr %3) #11
  call void @llvm.lifetime.start.p0(i64 24, ptr %4) #11
  call void @llvm.memset.p0.i64(ptr align 8 %4, i8 0, i64 24, i1 false)
  %16 = call i32 @uv__get_constrained_cpu(ptr noundef %4)
  %17 = icmp eq i32 %16, 0
  br i1 %17, label %18, label %41

18:                                               ; preds = %15
  %19 = getelementptr inbounds nuw %struct.uv__cpu_constraint, ptr %4, i32 0, i32 1
  %20 = load i64, ptr %19, align 8
  %21 = icmp sgt i64 %20, 0
  br i1 %21, label %22, label %41

22:                                               ; preds = %18
  %23 = getelementptr inbounds nuw %struct.uv__cpu_constraint, ptr %4, i32 0, i32 0
  %24 = load i64, ptr %23, align 8
  %25 = sitofp i64 %24 to double
  %26 = getelementptr inbounds nuw %struct.uv__cpu_constraint, ptr %4, i32 0, i32 1
  %27 = load i64, ptr %26, align 8
  %28 = sitofp i64 %27 to double
  %29 = fdiv double %25, %28
  %30 = getelementptr inbounds nuw %struct.uv__cpu_constraint, ptr %4, i32 0, i32 2
  %31 = load double, ptr %30, align 8
  %32 = fmul double %29, %31
  store double %32, ptr %3, align 8
  %33 = load double, ptr %3, align 8
  %34 = load i64, ptr %1, align 8
  %35 = sitofp i64 %34 to double
  %36 = fcmp olt double %33, %35
  br i1 %36, label %37, label %40

37:                                               ; preds = %22
  %38 = load double, ptr %3, align 8
  %39 = fptosi double %38 to i64
  store i64 %39, ptr %1, align 8
  br label %40

40:                                               ; preds = %37, %22
  br label %41

41:                                               ; preds = %40, %18, %15
  call void @llvm.lifetime.end.p0(i64 24, ptr %4) #11
  call void @llvm.lifetime.end.p0(i64 8, ptr %3) #11
  %42 = load i64, ptr %1, align 8
  %43 = icmp slt i64 %42, 1
  br i1 %43, label %44, label %45

44:                                               ; preds = %41
  store i64 1, ptr %1, align 8
  br label %45

45:                                               ; preds = %44, %41
  %46 = load i64, ptr %1, align 8
  %47 = trunc i64 %46 to i32
  call void @llvm.lifetime.end.p0(i64 128, ptr %2) #11
  call void @llvm.lifetime.end.p0(i64 8, ptr %1) #11
  ret i32 %47
}