; Function Attrs: nounwind uwtable
define dso_local i32 @uv_available_parallelism() local_unnamed_addr #0 {
  %1 = alloca %struct.cpu_set_t, align 8
  %2 = alloca %struct.uv__cpu_constraint, align 8
  call void @llvm.lifetime.start.p0(i64 128, ptr nonnull %1) #23
  call void @llvm.memset.p0.i64(ptr noundef nonnull align 8 dereferenceable(128) %1, i8 0, i64 128, i1 false)
  %3 = call i32 @sched_getaffinity(i32 noundef 0, i64 noundef 128, ptr noundef nonnull %1) #23
  %4 = icmp eq i32 %3, 0
  br i1 %4, label %5, label %.thread

5:                                                ; preds = %0
  %6 = call i32 @__sched_cpucount(i64 noundef 128, ptr noundef nonnull %1) #23
  %7 = zext nneg i32 %6 to i64
  %8 = icmp slt i32 %6, 0
  br i1 %8, label %.thread, label %10

.thread:                                          ; preds = %0, %5
  %9 = call i64 @sysconf(i32 noundef 84) #23
  br label %10

10:                                               ; preds = %.thread, %5
  %.1 = phi i64 [ %9, %.thread ], [ %7, %5 ]
  call void @llvm.lifetime.start.p0(i64 24, ptr nonnull %2) #23
  call void @llvm.memset.p0.i64(ptr noundef nonnull align 8 dereferenceable(24) %2, i8 0, i64 24, i1 false)
  %11 = call i32 @uv__get_constrained_cpu(ptr noundef nonnull %2) #23
  %12 = icmp eq i32 %11, 0
  %13 = getelementptr inbounds nuw i8, ptr %2, i64 8
  %14 = load i64, ptr %13, align 8
  %15 = icmp sgt i64 %14, 0
  %or.cond = select i1 %12, i1 %15, i1 false
  br i1 %or.cond, label %16, label %28

16:                                               ; preds = %10
  %17 = load i64, ptr %2, align 8
  %18 = sitofp i64 %17 to double
  %19 = uitofp nneg i64 %14 to double
  %20 = fdiv double %18, %19
  %21 = getelementptr inbounds nuw i8, ptr %2, i64 16
  %22 = load double, ptr %21, align 8
  %23 = fmul double %22, %20
  %24 = sitofp i64 %.1 to double
  %25 = fcmp olt double %23, %24
  br i1 %25, label %26, label %28

26:                                               ; preds = %16
  %27 = fptosi double %23 to i64
  br label %28

28:                                               ; preds = %16, %26, %10
  %.2 = phi i64 [ %27, %26 ], [ %.1, %16 ], [ %.1, %10 ]
  call void @llvm.lifetime.end.p0(i64 24, ptr nonnull %2) #23
  %spec.store.select = call i64 @llvm.smax.i64(i64 %.2, i64 1)
  %29 = trunc i64 %spec.store.select to i32
  call void @llvm.lifetime.end.p0(i64 128, ptr nonnull %1) #23
  ret i32 %29
}